target datalayout = "e-m:e-p270:32:32-p271:32:32-p272:64:64-i64:64-i128:128-f80:128-n8:16:32:64-S128"
target triple = "x86_64-pc-linux-gnu"

%struct.pmix_output_desc_t = type { i8, i8, i32, i8, i32, ptr, ptr, i32, ptr, i32, i8, i8, i8, i8, ptr, i32, i32 }

@pmix_output_info = global [64 x %struct.pmix_output_desc_t] zeroinitializer, align 16

; Function Attrs: nounwind uwtable
define void @pmix_output_set_verbosity(i32 noundef %0, i32 noundef %1) #0 {
  %3 = alloca i32, align 4
  %4 = alloca i32, align 4
  store i32 %0, ptr %3, align 4, !tbaa !33
  store i32 %1, ptr %4, align 4, !tbaa !33
  %5 = load i32, ptr %3, align 4, !tbaa !33
  %6 = icmp sge i32 %5, 0
  br i1 %6, label %7, label %16

7:                                                ; preds = %2
  %8 = load i32, ptr %3, align 4, !tbaa !33
  %9 = icmp slt i32 %8, 64
  br i1 %9, label %10, label %16

10:                                               ; preds = %7
  %11 = load i32, ptr %4, align 4, !tbaa !33
  %12 = load i32, ptr %3, align 4, !tbaa !33
  %13 = sext i32 %12 to i64
  %14 = getelementptr inbounds [64 x %struct.pmix_output_desc_t], ptr @pmix_output_info, i64 0, i64 %13
  %15 = getelementptr inbounds nuw %struct.pmix_output_desc_t, ptr %14, i32 0, i32 2
  store i32 %11, ptr %15, align 4, !tbaa !66
  br label %16

16:                                               ; preds = %10, %7, %2
  ret void
}