; Function Attrs: mustprogress nofree norecurse nosync nounwind willreturn memory(write, argmem: none, inaccessiblemem: none) uwtable
define void @pmix_output_set_verbosity(i32 noundef %0, i32 noundef %1) local_unnamed_addr #12 {
  %or.cond = icmp ult i32 %0, 64
  br i1 %or.cond, label %3, label %6

3:                                                ; preds = %2
  %4 = zext nneg i32 %0 to i64
  %5 = getelementptr inbounds nuw [64 x %struct.pmix_output_desc_t], ptr @pmix_output_info, i64 0, i64 %4, i32 2
  store i32 %1, ptr %5, align 4, !tbaa !47
  br label %6

6:                                                ; preds = %3, %2
  ret void
}